target datalayout = "e-m:e-p270:32:32-p271:32:32-p272:64:64-i64:64-i128:128-f80:128-n8:16:32:64-S128"
target triple = "x86_64-unknown-linux-gnu"

%class.b3GpuParallelLinearBvhBroadphase = type { %class.b3GpuBroadphaseInterface, %class.b3GpuParallelLinearBvh, %class.b3OpenCLArray.8, %class.b3OpenCLArray.0, %class.b3OpenCLArray, %class.b3OpenCLArray, %class.b3AlignedObjectArray, %class.b3AlignedObjectArray.10, %class.b3AlignedObjectArray.10 }
%class.b3GpuBroadphaseInterface = type { ptr }
%class.b3GpuParallelLinearBvh = type { ptr, ptr, ptr, ptr, ptr, ptr, ptr, ptr, ptr, ptr, ptr, ptr, ptr, ptr, ptr, ptr, %class.b3RadixSort32CL, %class.b3OpenCLArray, %class.b3OpenCLArray, %class.b3OpenCLArray, %class.b3OpenCLArray.0, %class.b3OpenCLArray.2, %class.b3OpenCLArray.2, %class.b3OpenCLArray, %class.b3OpenCLArray.4, %class.b3OpenCLArray, %class.b3OpenCLArray, %class.b3OpenCLArray, %class.b3OpenCLArray.6, %class.b3OpenCLArray.0, %class.b3OpenCLArray.0, %class.b3OpenCLArray.0 }
%class.b3RadixSort32CL = type { ptr, ptr, ptr, ptr, ptr, ptr, ptr, ptr, ptr, ptr, ptr, ptr, ptr, i8, ptr, ptr }
%class.b3OpenCLArray.2 = type <{ ptr, i64, i64, ptr, ptr, ptr, i8, i8, [6 x i8] }>
%class.b3OpenCLArray.4 = type <{ ptr, i64, i64, ptr, ptr, ptr, i8, i8, [6 x i8] }>
%class.b3OpenCLArray.6 = type <{ ptr, i64, i64, ptr, ptr, ptr, i8, i8, [6 x i8] }>
%class.b3OpenCLArray.8 = type <{ ptr, i64, i64, ptr, ptr, ptr, i8, i8, [6 x i8] }>
%class.b3OpenCLArray.0 = type <{ ptr, i64, i64, ptr, ptr, ptr, i8, i8, [6 x i8] }>
%class.b3OpenCLArray = type <{ ptr, i64, i64, ptr, ptr, ptr, i8, i8, [6 x i8] }>
%class.b3AlignedObjectArray = type <{ %class.b3AlignedAllocator, [3 x i8], i32, i32, [4 x i8], ptr, i8, [7 x i8] }>
%class.b3AlignedAllocator = type { i8 }
%class.b3AlignedObjectArray.10 = type <{ %class.b3AlignedAllocator.11, [3 x i8], i32, i32, [4 x i8], ptr, i8, [7 x i8] }>
%class.b3AlignedAllocator.11 = type { i8 }
%struct.b3SapAabb = type { %struct.b3Aabb }
%struct.b3Aabb = type { %union.anon, %union.anon.15 }
%union.anon = type { [4 x float] }
%union.anon.15 = type { [4 x float] }

; Function Attrs: mustprogress nounwind uwtable
define linkonce_odr dso_local noundef i32 @_ZN20b3AlignedObjectArrayI9b3SapAabbE9allocSizeEi(ptr noundef nonnull align 8 dereferenceable(25) %this, i32 noundef %size) #1 comdat align 2 {
entry:
  %this.addr = alloca ptr, align 8
  %size.addr = alloca i32, align 4
  store ptr %this, ptr %this.addr, align 8
  store i32 %size, ptr %size.addr, align 4
  %0 = load i32, ptr %size.addr, align 4
  %tobool = icmp ne i32 %0, 0
  br i1 %tobool, label %cond.true, label %cond.false

cond.true:                                        ; preds = %entry
  %1 = load i32, ptr %size.addr, align 4
  %mul = mul nsw i32 %1, 2
  br label %cond.end

cond.false:                                       ; preds = %entry
  br label %cond.end

cond.end:                                         ; preds = %cond.false, %cond.true
  %cond = phi i32 [ %mul, %cond.true ], [ 1, %cond.false ]
  ret i32 %cond
}

; Function Attrs: mustprogress nounwind uwtable
define linkonce_odr dso_local noundef i32 @_ZNK20b3AlignedObjectArrayI9b3SapAabbE8capacityEv(ptr noundef nonnull align 8 dereferenceable(25) %this) #1 comdat align 2 {
entry:
  %this.addr = alloca ptr, align 8
  store ptr %this, ptr %this.addr, align 8
  %this1 = load ptr, ptr %this.addr, align 8
  %m_capacity = getelementptr inbounds %class.b3AlignedObjectArray, ptr %this1, i32 0, i32 3
  %0 = load i32, ptr %m_capacity, align 8
  ret i32 %0
}

; Function Attrs: mustprogress nounwind uwtable
define linkonce_odr dso_local noundef i32 @_ZN20b3AlignedObjectArrayIiE9allocSizeEi(ptr noundef nonnull align 8 dereferenceable(25) %this, i32 noundef %size) #1 comdat align 2 {
entry:
  %this.addr = alloca ptr, align 8
  %size.addr = alloca i32, align 4
  store ptr %this, ptr %this.addr, align 8
  store i32 %size, ptr %size.addr, align 4
  %0 = load i32, ptr %size.addr, align 4
  %tobool = icmp ne i32 %0, 0
  br i1 %tobool, label %cond.true, label %cond.false

cond.true:                                        ; preds = %entry
  %1 = load i32, ptr %size.addr, align 4
  %mul = mul nsw i32 %1, 2
  br label %cond.end

cond.false:                                       ; preds = %entry
  br label %cond.end

cond.end:                                         ; preds = %cond.false, %cond.true
  %cond = phi i32 [ %mul, %cond.true ], [ 1, %cond.false ]
  ret i32 %cond
}

; Function Attrs: mustprogress nounwind uwtable
define linkonce_odr dso_local noundef i32 @_ZNK20b3AlignedObjectArrayIiE8capacityEv(ptr noundef nonnull align 8 dereferenceable(25) %this) #1 comdat align 2 {
entry:
  %this.addr = alloca ptr, align 8
  store ptr %this, ptr %this.addr, align 8
  %this1 = load ptr, ptr %this.addr, align 8
  %m_capacity = getelementptr inbounds %class.b3AlignedObjectArray.10, ptr %this1, i32 0, i32 3
  %0 = load i32, ptr %m_capacity, align 8
  ret i32 %0
}

; Function Attrs: mustprogress nounwind uwtable
define linkonce_odr dso_local noundef i32 @_ZNK20b3AlignedObjectArrayIiE4sizeEv(ptr noundef nonnull align 8 dereferenceable(25) %this) #1 comdat align 2 {
entry:
  %this.addr = alloca ptr, align 8
  store ptr %this, ptr %this.addr, align 8
  %this1 = load ptr, ptr %this.addr, align 8
  %m_size = getelementptr inbounds %class.b3AlignedObjectArray.10, ptr %this1, i32 0, i32 2
  %0 = load i32, ptr %m_size, align 4
  ret i32 %0
}

; Function Attrs: mustprogress uwtable
define linkonce_odr dso_local void @_ZN20b3AlignedObjectArrayI9b3SapAabbE9push_backERKS0_(ptr noundef nonnull align 8 dereferenceable(25) %this, ptr noundef nonnull align 16 dereferenceable(32) %_Val) #0 comdat align 2 {
entry:
  %this.addr = alloca ptr, align 8
  %_Val.addr = alloca ptr, align 8
  %sz = alloca i32, align 4
  store ptr %this, ptr %this.addr, align 8
  store ptr %_Val, ptr %_Val.addr, align 8
  %this1 = load ptr, ptr %this.addr, align 8
  %call = call noundef i32 @_ZNK20b3AlignedObjectArrayI9b3SapAabbE4sizeEv(ptr noundef nonnull align 8 dereferenceable(25) %this1)
  store i32 %call, ptr %sz, align 4
  %0 = load i32, ptr %sz, align 4
  %call2 = call noundef i32 @_ZNK20b3AlignedObjectArrayI9b3SapAabbE8capacityEv(ptr noundef nonnull align 8 dereferenceable(25) %this1)
  %cmp = icmp eq i32 %0, %call2
  br i1 %cmp, label %if.then, label %if.end

if.then:                                          ; preds = %entry
  %call3 = call noundef i32 @_ZNK20b3AlignedObjectArrayI9b3SapAabbE4sizeEv(ptr noundef nonnull align 8 dereferenceable(25) %this1)
  %call4 = call noundef i32 @_ZN20b3AlignedObjectArrayI9b3SapAabbE9allocSizeEi(ptr noundef nonnull align 8 dereferenceable(25) %this1, i32 noundef %call3)
  call void @_ZN20b3AlignedObjectArrayI9b3SapAabbE7reserveEi(ptr noundef nonnull align 8 dereferenceable(25) %this1, i32 noundef %call4)
  br label %if.end

if.end:                                           ; preds = %if.then, %entry
  %m_data = getelementptr inbounds %class.b3AlignedObjectArray, ptr %this1, i32 0, i32 5
  %1 = load ptr, ptr %m_data, align 8
  %m_size = getelementptr inbounds %class.b3AlignedObjectArray, ptr %this1, i32 0, i32 2
  %2 = load i32, ptr %m_size, align 4
  %idxprom = sext i32 %2 to i64
  %arrayidx = getelementptr inbounds %struct.b3SapAabb, ptr %1, i64 %idxprom
  %3 = load ptr, ptr %_Val.addr, align 8
  call void @llvm.memcpy.p0.p0.i64(ptr align 16 %arrayidx, ptr align 16 %3, i64 32, i1 false)
  %m_size5 = getelementptr inbounds %class.b3AlignedObjectArray, ptr %this1, i32 0, i32 2
  %4 = load i32, ptr %m_size5, align 4
  %inc = add nsw i32 %4, 1
  store i32 %inc, ptr %m_size5, align 4
  ret void
}

; Function Attrs: mustprogress uwtable
define linkonce_odr dso_local void @_ZN20b3AlignedObjectArrayIiE9push_backERKi(ptr noundef nonnull align 8 dereferenceable(25) %this, ptr noundef nonnull align 4 dereferenceable(4) %_Val) #0 comdat align 2 {
entry:
  %this.addr = alloca ptr, align 8
  %_Val.addr = alloca ptr, align 8
  %sz = alloca i32, align 4
  store ptr %this, ptr %this.addr, align 8
  store ptr %_Val, ptr %_Val.addr, align 8
  %this1 = load ptr, ptr %this.addr, align 8
  %call = call noundef i32 @_ZNK20b3AlignedObjectArrayIiE4sizeEv(ptr noundef nonnull align 8 dereferenceable(25) %this1)
  store i32 %call, ptr %sz, align 4
  %0 = load i32, ptr %sz, align 4
  %call2 = call noundef i32 @_ZNK20b3AlignedObjectArrayIiE8capacityEv(ptr noundef nonnull align 8 dereferenceable(25) %this1)
  %cmp = icmp eq i32 %0, %call2
  br i1 %cmp, label %if.then, label %if.end

if.then:                                          ; preds = %entry
  %call3 = call noundef i32 @_ZNK20b3AlignedObjectArrayIiE4sizeEv(ptr noundef nonnull align 8 dereferenceable(25) %this1)
  %call4 = call noundef i32 @_ZN20b3AlignedObjectArrayIiE9allocSizeEi(ptr noundef nonnull align 8 dereferenceable(25) %this1, i32 noundef %call3)
  call void @_ZN20b3AlignedObjectArrayIiE7reserveEi(ptr noundef nonnull align 8 dereferenceable(25) %this1, i32 noundef %call4)
  br label %if.end

if.end:                                           ; preds = %if.then, %entry
  %m_data = getelementptr inbounds %class.b3AlignedObjectArray.10, ptr %this1, i32 0, i32 5
  %1 = load ptr, ptr %m_data, align 8
  %m_size = getelementptr inbounds %class.b3AlignedObjectArray.10, ptr %this1, i32 0, i32 2
  %2 = load i32, ptr %m_size, align 4
  %idxprom = sext i32 %2 to i64
  %arrayidx = getelementptr inbounds i32, ptr %1, i64 %idxprom
  %3 = load ptr, ptr %_Val.addr, align 8
  %4 = load i32, ptr %3, align 4
  store i32 %4, ptr %arrayidx, align 4
  %m_size5 = getelementptr inbounds %class.b3AlignedObjectArray.10, ptr %this1, i32 0, i32 2
  %5 = load i32, ptr %m_size5, align 4
  %inc = add nsw i32 %5, 1
  store i32 %inc, ptr %m_size5, align 4
  ret void
}

; Function Attrs: mustprogress nounwind uwtable
define linkonce_odr dso_local noundef i32 @_ZNK20b3AlignedObjectArrayI9b3SapAabbE4sizeEv(ptr noundef nonnull align 8 dereferenceable(25) %this) #1 comdat align 2 {
entry:
  %this.addr = alloca ptr, align 8
  store ptr %this, ptr %this.addr, align 8
  %this1 = load ptr, ptr %this.addr, align 8
  %m_size = getelementptr inbounds %class.b3AlignedObjectArray, ptr %this1, i32 0, i32 2
  %0 = load i32, ptr %m_size, align 4
  ret i32 %0
}

; Function Attrs: mustprogress uwtable
define dso_local void @_ZN32b3GpuParallelLinearBvhBroadphase11createProxyERK9b3Vector3S2_iii(ptr noundef nonnull align 8 dereferenceable(1424) %this, ptr noundef nonnull align 16 dereferenceable(16) %aabbMin, ptr noundef nonnull align 16 dereferenceable(16) %aabbMax, i32 noundef %userPtr, i32 noundef %collisionFilterGroup, i32 noundef %collisionFilterMask) unnamed_addr #0 align 2 {
entry:
  %this.addr = alloca ptr, align 8
  %aabbMin.addr = alloca ptr, align 8
  %aabbMax.addr = alloca ptr, align 8
  %userPtr.addr = alloca i32, align 4
  %collisionFilterGroup.addr = alloca i32, align 4
  %collisionFilterMask.addr = alloca i32, align 4
  %newAabbIndex = alloca i32, align 4
  %aabb = alloca %struct.b3SapAabb, align 16
  store ptr %this, ptr %this.addr, align 8
  store ptr %aabbMin, ptr %aabbMin.addr, align 8
  store ptr %aabbMax, ptr %aabbMax.addr, align 8
  store i32 %userPtr, ptr %userPtr.addr, align 4
  store i32 %collisionFilterGroup, ptr %collisionFilterGroup.addr, align 4
  store i32 %collisionFilterMask, ptr %collisionFilterMask.addr, align 4
  %this1 = load ptr, ptr %this.addr, align 8
  %m_aabbsCpu = getelementptr inbounds %class.b3GpuParallelLinearBvhBroadphase, ptr %this1, i32 0, i32 6
  %call = call noundef i32 @_ZNK20b3AlignedObjectArrayI9b3SapAabbE4sizeEv(ptr noundef nonnull align 8 dereferenceable(25) %m_aabbsCpu)
  store i32 %call, ptr %newAabbIndex, align 4
  %0 = load ptr, ptr %aabbMin.addr, align 8
  %1 = getelementptr inbounds %struct.b3Aabb, ptr %aabb, i32 0, i32 0
  call void @llvm.memcpy.p0.p0.i64(ptr align 16 %1, ptr align 16 %0, i64 16, i1 false)
  %2 = load ptr, ptr %aabbMax.addr, align 8
  %3 = getelementptr inbounds %struct.b3Aabb, ptr %aabb, i32 0, i32 1
  call void @llvm.memcpy.p0.p0.i64(ptr align 16 %3, ptr align 16 %2, i64 16, i1 false)
  %4 = load i32, ptr %userPtr.addr, align 4
  %5 = getelementptr inbounds %struct.b3Aabb, ptr %aabb, i32 0, i32 0
  %arrayidx = getelementptr inbounds [4 x i32], ptr %5, i64 0, i64 3
  store i32 %4, ptr %arrayidx, align 4
  %6 = load i32, ptr %newAabbIndex, align 4
  %7 = getelementptr inbounds %struct.b3Aabb, ptr %aabb, i32 0, i32 1
  %arrayidx2 = getelementptr inbounds [4 x i32], ptr %7, i64 0, i64 3
  store i32 %6, ptr %arrayidx2, align 4
  %m_smallAabbsMappingCpu = getelementptr inbounds %class.b3GpuParallelLinearBvhBroadphase, ptr %this1, i32 0, i32 7
  call void @_ZN20b3AlignedObjectArrayIiE9push_backERKi(ptr noundef nonnull align 8 dereferenceable(25) %m_smallAabbsMappingCpu, ptr noundef nonnull align 4 dereferenceable(4) %newAabbIndex)
  %m_aabbsCpu3 = getelementptr inbounds %class.b3GpuParallelLinearBvhBroadphase, ptr %this1, i32 0, i32 6
  call void @_ZN20b3AlignedObjectArrayI9b3SapAabbE9push_backERKS0_(ptr noundef nonnull align 8 dereferenceable(25) %m_aabbsCpu3, ptr noundef nonnull align 16 dereferenceable(32) %aabb)
  ret void
}