; Function Attrs: mustprogress uwtable
define dso_local void @_ZN32b3GpuParallelLinearBvhBroadphase11createProxyERK9b3Vector3S2_iii(ptr noundef nonnull align 8 dereferenceable(1424) %this, ptr nocapture noundef nonnull readonly align 16 dereferenceable(16) %aabbMin, ptr nocapture noundef nonnull readonly align 16 dereferenceable(16) %aabbMax, i32 noundef %userPtr, i32 %collisionFilterGroup, i32 %collisionFilterMask) unnamed_addr #0 align 2 {
entry:
  %aabb.sroa.0 = alloca [3 x float], align 16
  %aabb.sroa.3 = alloca [3 x float], align 16
  %m_aabbsCpu = getelementptr inbounds i8, ptr %this, i64 1328
  %m_size.i = getelementptr inbounds i8, ptr %this, i64 1332
  %0 = load i32, ptr %m_size.i, align 4
  call void @llvm.memcpy.p0.p0.i64(ptr noundef nonnull align 16 dereferenceable(12) %aabb.sroa.0, ptr noundef nonnull align 16 dereferenceable(12) %aabbMin, i64 12, i1 false)
  call void @llvm.memcpy.p0.p0.i64(ptr noundef nonnull align 16 dereferenceable(12) %aabb.sroa.3, ptr noundef nonnull align 16 dereferenceable(12) %aabbMax, i64 12, i1 false)
  %m_size.i.i = getelementptr inbounds i8, ptr %this, i64 1364
  %1 = load i32, ptr %m_size.i.i, align 4
  %m_capacity.i.i = getelementptr inbounds i8, ptr %this, i64 1368
  %2 = load i32, ptr %m_capacity.i.i, align 8
  %cmp.i = icmp eq i32 %1, %2
  br i1 %cmp.i, label %if.then.i, label %_ZN20b3AlignedObjectArrayIiE9push_backERKi.exit

if.then.i:                                        ; preds = %entry
  %m_smallAabbsMappingCpu = getelementptr inbounds i8, ptr %this, i64 1360
  %tobool.not.i.i = icmp eq i32 %1, 0
  %mul.i.i = shl nsw i32 %1, 1
  %cond.i.i = select i1 %tobool.not.i.i, i32 1, i32 %mul.i.i
  tail call void @_ZN20b3AlignedObjectArrayIiE7reserveEi(ptr noundef nonnull align 8 dereferenceable(25) %m_smallAabbsMappingCpu, i32 noundef %cond.i.i)
  %.pre.i = load i32, ptr %m_size.i.i, align 4
  br label %_ZN20b3AlignedObjectArrayIiE9push_backERKi.exit

_ZN20b3AlignedObjectArrayIiE9push_backERKi.exit:  ; preds = %entry, %if.then.i
  %3 = phi i32 [ %.pre.i, %if.then.i ], [ %1, %entry ]
  %m_data.i = getelementptr inbounds i8, ptr %this, i64 1376
  %4 = load ptr, ptr %m_data.i, align 8
  %idxprom.i = sext i32 %3 to i64
  %arrayidx.i = getelementptr inbounds i32, ptr %4, i64 %idxprom.i
  store i32 %0, ptr %arrayidx.i, align 4
  %5 = load i32, ptr %m_size.i.i, align 4
  %inc.i = add nsw i32 %5, 1
  store i32 %inc.i, ptr %m_size.i.i, align 4
  %6 = load i32, ptr %m_size.i, align 4
  %m_capacity.i.i2 = getelementptr inbounds i8, ptr %this, i64 1336
  %7 = load i32, ptr %m_capacity.i.i2, align 8
  %cmp.i3 = icmp eq i32 %6, %7
  br i1 %cmp.i3, label %if.then.i8, label %_ZN20b3AlignedObjectArrayI9b3SapAabbE9push_backERKS0_.exit

if.then.i8:                                       ; preds = %_ZN20b3AlignedObjectArrayIiE9push_backERKi.exit
  %tobool.not.i.i9 = icmp eq i32 %6, 0
  %mul.i.i10 = shl nsw i32 %6, 1
  %cond.i.i11 = select i1 %tobool.not.i.i9, i32 1, i32 %mul.i.i10
  tail call void @_ZN20b3AlignedObjectArrayI9b3SapAabbE7reserveEi(ptr noundef nonnull align 8 dereferenceable(25) %m_aabbsCpu, i32 noundef %cond.i.i11)
  %.pre.i12 = load i32, ptr %m_size.i, align 4
  br label %_ZN20b3AlignedObjectArrayI9b3SapAabbE9push_backERKS0_.exit

_ZN20b3AlignedObjectArrayI9b3SapAabbE9push_backERKS0_.exit: ; preds = %_ZN20b3AlignedObjectArrayIiE9push_backERKi.exit, %if.then.i8
  %8 = phi i32 [ %.pre.i12, %if.then.i8 ], [ %6, %_ZN20b3AlignedObjectArrayIiE9push_backERKi.exit ]
  %m_data.i4 = getelementptr inbounds i8, ptr %this, i64 1344
  %9 = load ptr, ptr %m_data.i4, align 8
  %idxprom.i5 = sext i32 %8 to i64
  %arrayidx.i6 = getelementptr inbounds %struct.b3SapAabb, ptr %9, i64 %idxprom.i5
  call void @llvm.memcpy.p0.p0.i64(ptr noundef nonnull align 16 dereferenceable(12) %arrayidx.i6, ptr noundef nonnull align 16 dereferenceable(12) %aabb.sroa.0, i64 12, i1 false)
  %aabb.sroa.2.0.arrayidx.i6.sroa_idx = getelementptr inbounds i8, ptr %arrayidx.i6, i64 12
  store i32 %userPtr, ptr %aabb.sroa.2.0.arrayidx.i6.sroa_idx, align 4
  %aabb.sroa.3.0.arrayidx.i6.sroa_idx = getelementptr inbounds i8, ptr %arrayidx.i6, i64 16
  call void @llvm.memcpy.p0.p0.i64(ptr noundef nonnull align 16 dereferenceable(12) %aabb.sroa.3.0.arrayidx.i6.sroa_idx, ptr noundef nonnull align 16 dereferenceable(12) %aabb.sroa.3, i64 12, i1 false)
  %aabb.sroa.4.0.arrayidx.i6.sroa_idx = getelementptr inbounds i8, ptr %arrayidx.i6, i64 28
  store i32 %0, ptr %aabb.sroa.4.0.arrayidx.i6.sroa_idx, align 4
  %10 = load i32, ptr %m_size.i, align 4
  %inc.i7 = add nsw i32 %10, 1
  store i32 %inc.i7, ptr %m_size.i, align 4
  ret void
}